target datalayout = "e-m:e-p270:32:32-p271:32:32-p272:64:64-i64:64-i128:128-f80:128-n8:16:32:64-S128"
target triple = "x86_64-pc-linux-gnu"

%"struct.llvm::GlobalStatus" = type { i8, i8, i32, i32, ptr, ptr, i8, i32 }

; Function Attrs: mustprogress nounwind uwtable
define dso_local void @_ZN4llvm12GlobalStatusC2Ev(ptr noundef nonnull align 8 dereferenceable(40) %0) unnamed_addr #0 align 2 {
  %2 = alloca ptr, align 8
  store ptr %0, ptr %2, align 8
  %3 = load ptr, ptr %2, align 8
  %4 = getelementptr inbounds nuw %"struct.llvm::GlobalStatus", ptr %3, i32 0, i32 0
  store i8 0, ptr %4, align 8
  %5 = getelementptr inbounds nuw %"struct.llvm::GlobalStatus", ptr %3, i32 0, i32 1
  store i8 0, ptr %5, align 1
  %6 = getelementptr inbounds nuw %"struct.llvm::GlobalStatus", ptr %3, i32 0, i32 2
  store i32 0, ptr %6, align 4
  %7 = getelementptr inbounds nuw %"struct.llvm::GlobalStatus", ptr %3, i32 0, i32 3
  store i32 0, ptr %7, align 8
  %8 = getelementptr inbounds nuw %"struct.llvm::GlobalStatus", ptr %3, i32 0, i32 4
  store ptr null, ptr %8, align 8
  %9 = getelementptr inbounds nuw %"struct.llvm::GlobalStatus", ptr %3, i32 0, i32 5
  store ptr null, ptr %9, align 8
  %10 = getelementptr inbounds nuw %"struct.llvm::GlobalStatus", ptr %3, i32 0, i32 6
  store i8 0, ptr %10, align 8
  %11 = getelementptr inbounds nuw %"struct.llvm::GlobalStatus", ptr %3, i32 0, i32 7
  store i32 0, ptr %11, align 4
  ret void
}