; Function Attrs: mustprogress nofree norecurse nosync nounwind willreturn memory(argmem: write) uwtable
define dso_local void @_ZN4llvm12GlobalStatusC2Ev(ptr nocapture noundef nonnull writeonly align 8 dereferenceable(40) %0) unnamed_addr #2 align 2 {
  store i8 0, ptr %0, align 8
  %2 = getelementptr inbounds nuw i8, ptr %0, i64 1
  store i8 0, ptr %2, align 1
  %3 = getelementptr inbounds nuw i8, ptr %0, i64 4
  store i32 0, ptr %3, align 4
  %4 = getelementptr inbounds nuw i8, ptr %0, i64 8
  store i32 0, ptr %4, align 8
  %5 = getelementptr inbounds nuw i8, ptr %0, i64 16
  %6 = getelementptr inbounds nuw i8, ptr %0, i64 36
  store i32 0, ptr %6, align 4
  tail call void @llvm.memset.p0.i64(ptr noundef nonnull align 8 dereferenceable(17) %5, i8 0, i64 17, i1 false)
  ret void
}